(dp0
S'Member'
p1
(dp2
S'fu (MPa)'
p3
V410
p4
sS'Connectivity'
p5
S'Column flange-Beam flange'
p6
sS'ColumnSection'
p7
S'UC 203 x 203 x 86'
p8
sS'BeamSection'
p9
S'MB 300'
p10
sS'fy (MPa)'
p11
V250
p12
ssS'Load'
p13
(dp14
S'ShearForce (kN)'
p15
V100.0
p16
ssS'Angle'
p17
(dp18
S'TopAngleSection'
p19
S'150 150 X 10'
p20
sS'AngleSection'
p21
S'150 150 X 15'
p22
ssS'Bolt'
p23
(dp24
S'Grade'
p25
V10.8
p26
sS'Diameter (mm)'
p27
V20
p28
sS'Type'
p29
S'HSFG'
p30
ss.