(dp0
S'Member'
p1
(dp2
S'ColumnSection'
p3
S'ISSC 200'
p4
sS'fu (MPa)'
p5
I410
sS'BeamSection'
p6
S'ISMB 400'
p7
sS'fy (MPa)'
p8
I250
sS'Connectivity'
p9
S'Column flange-Beam web'
p10
ssS'Load'
p11
(dp12
S'ShearForce (kN)'
p13
I140
ssS'Angle'
p14
(dp15
S'AngleSection'
p16
S'Select Designation'
p17
ssS'Bolt'
p18
(dp19
S'Grade'
p20
F10.8
sS'Diameter (mm)'
p21
I20
sS'Type'
p22
S'HSFG'
p23
ss.