(dp0
S'Member'
p1
(dp2
S'fu (MPa)'
p3
I410
sS'Connectivity'
p4
S'Column flange-Beam flange'
p5
sS'ColumnSection'
p6
S'ISSC 200'
p7
sS'BeamSection'
p8
S'ISMB 400'
p9
sS'fy (MPa)'
p10
I250
ssS'Load'
p11
(dp12
S'ShearForce (kN)'
p13
F100.0
ssS'Angle'
p14
(dp15
S'TopAngleSection'
p16
S'ISA 125X75X12'
p17
sS'AngleSection'
p18
S'ISA 100X75X12'
p19
ssS'Bolt'
p20
(dp21
S'Grade'
p22
F10.8
sS'Diameter (mm)'
p23
I20
sS'Type'
p24
S'HSFG'
p25
ss.