(dp0
S'Member'
p1
(dp2
S'columSection'
p3
S''
p4
sS'fy(MPa)'
p5
I250
sS'fu(MPa)'
p6
I410
sS'beamSection'
p7
g4
sS'connectivity'
p8
S'Column flange-Beam web'
p9
ssS'Plate'
p10
(dp11
S'thickness(mm)'
p12
I10
sS'length(mm)'
p13
I300
sS'width(mm)'
p14
I100
ssS'Load'
p15
(dp16
S'shearForce(kN)'
p17
I500
ssS'Weld'
p18
(dp19
S'size(mm)'
p20
I6
ssS'Bolt'
p21
(dp22
S'grade'
p23
S'8.8'
p24
sS'type'
p25
S'HSFG'
p26
sS'diameter(mm)'
p27
I20
ss.